; Function Attrs: mustprogress nounwind uwtable
define hidden void @_ZN6hermes2vm16SamplingProfiler6resumeEv(ptr noundef nonnull align 8 dereferenceable(256) %this) local_unnamed_addr #0 align 2 {
entry:
  %runtimeDataLock_ = getelementptr inbounds i8, ptr %this, i64 8
  %call1.i.i.i = tail call noundef i32 @pthread_mutex_lock(ptr noundef nonnull %runtimeDataLock_) #18
  %tobool.not.i.i = icmp eq i32 %call1.i.i.i, 0
  br i1 %tobool.not.i.i, label %_ZNSt10lock_guardISt5mutexEC2ERS0_.exit, label %if.then.i.i

if.then.i.i:                                      ; preds = %entry
  tail call void @_ZSt20__throw_system_errori(i32 noundef %call1.i.i.i) #15
  unreachable

_ZNSt10lock_guardISt5mutexEC2ERS0_.exit:          ; preds = %entry
  %suspendCount_ = getelementptr inbounds i8, ptr %this, i64 72
  %0 = load volatile i32, ptr %suspendCount_, align 8
  %dec = add i32 %0, -1
  store volatile i32 %dec, ptr %suspendCount_, align 8
  %cmp = icmp eq i32 %dec, 0
  br i1 %cmp, label %if.then, label %if.end

if.then:                                          ; preds = %_ZNSt10lock_guardISt5mutexEC2ERS0_.exit
  %preSuspendStackDepth_ = getelementptr inbounds i8, ptr %this, i64 76
  store volatile i32 0, ptr %preSuspendStackDepth_, align 4
  br label %if.end

if.end:                                           ; preds = %if.then, %_ZNSt10lock_guardISt5mutexEC2ERS0_.exit
  %call1.i.i.i1 = tail call noundef i32 @pthread_mutex_unlock(ptr noundef nonnull %runtimeDataLock_) #18
  ret void
}